Certificate:
    Data:
        Version: 3 (0x2)
        Serial Number:
            fe:63:ee:53:34:3f:73:ba
        Signature Algorithm: sha1WithRSAEncryption
        Issuer: C=AT, ST=Styria, O=FirmOS FRE TestCA, CN=fre_test_ca@firmos.at/emailAddress=fre_test_ca@firmos.at
        Validity
            Not Before: Dec  5 14:41:10 2011 GMT
            Not After : Dec  4 14:41:10 2012 GMT
        Subject: C=AT, ST=Styria, O=FirmOS FRE TestCA, CN=fre_testserver@firmos.at
        Subject Public Key Info:
            Public Key Algorithm: rsaEncryption
                Public-Key: (1024 bit)
                Modulus:
                    00:b8:87:4b:ea:4e:9b:df:85:94:a2:4f:5c:3e:d9:
                    45:b4:b0:8d:9c:a3:5a:fc:eb:10:77:c2:30:1e:6f:
                    b7:9c:7a:51:c0:14:32:cb:82:3a:9f:3f:15:84:f3:
                    5a:55:31:fa:e1:6d:db:ca:de:38:07:6b:34:49:f7:
                    0c:44:0a:c4:0d:64:d8:c7:66:d8:14:ab:86:1a:3c:
                    b2:d7:3d:56:48:29:f2:56:20:93:88:7e:e9:9c:99:
                    93:da:de:32:23:c2:39:68:c9:40:e7:59:f9:77:de:
                    34:e8:a6:90:e6:a0:d9:67:66:ff:8a:4d:f4:25:46:
                    ca:1c:a4:8b:a0:8a:d8:64:69
                Exponent: 65537 (0x10001)
        X509v3 extensions:
            X509v3 Basic Constraints: 
                CA:FALSE
            Netscape Comment: 
                OpenSSL Generated Certificate
            X509v3 Subject Key Identifier: 
                90:3C:37:74:5C:CD:3C:47:B7:6E:C6:B4:82:75:9E:F3:E1:3E:CE:80
            X509v3 Authority Key Identifier: 
                keyid:3D:11:95:2B:DD:62:0B:C4:DB:2C:94:F9:81:C5:2F:22:4C:B0:43:1B

    Signature Algorithm: sha1WithRSAEncryption
        13:ae:37:60:13:de:33:91:34:a3:d7:7b:a3:bd:56:9d:f2:3f:
        74:3e:17:74:4f:5f:8b:d4:f0:d7:ad:5b:b1:9d:92:42:40:06:
        4c:3a:67:86:4f:f1:15:39:00:19:78:c5:17:90:b0:23:28:6b:
        24:e4:f7:c3:1c:90:f4:a6:34:9b:59:02:3a:44:7d:3e:bc:ad:
        f1:48:84:0b:93:2a:bc:a0:07:35:0f:a6:84:57:c2:d5:93:e8:
        7a:f5:68:ca:ea:90:e0:cc:28:88:10:90:58:4e:70:e9:30:4d:
        4f:82:7c:9d:0d:e0:32:76:ef:c0:50:d8:e8:15:cd:dd:ec:48:
        19:31
-----BEGIN CERTIFICATE-----
MIIC1zCCAkCgAwIBAgIJAP5j7lM0P3O6MA0GCSqGSIb3DQEBBQUAMIGAMQswCQYD
VQQGEwJBVDEPMA0GA1UECAwGU3R5cmlhMRowGAYDVQQKDBFGaXJtT1MgRlJFIFRl
c3RDQTEeMBwGA1UEAwwVZnJlX3Rlc3RfY2FAZmlybW9zLmF0MSQwIgYJKoZIhvcN
AQkBFhVmcmVfdGVzdF9jYUBmaXJtb3MuYXQwHhcNMTExMjA1MTQ0MTEwWhcNMTIx
MjA0MTQ0MTEwWjBdMQswCQYDVQQGEwJBVDEPMA0GA1UECAwGU3R5cmlhMRowGAYD
VQQKDBFGaXJtT1MgRlJFIFRlc3RDQTEhMB8GA1UEAwwYZnJlX3Rlc3RzZXJ2ZXJA
ZmlybW9zLmF0MIGfMA0GCSqGSIb3DQEBAQUAA4GNADCBiQKBgQC4h0vqTpvfhZSi
T1w+2UW0sI2co1r86xB3wjAeb7ecelHAFDLLgjqfPxWE81pVMfrhbdvK3jgHazRJ
9wxECsQNZNjHZtgUq4YaPLLXPVZIKfJWIJOIfumcmZPa3jIjwjloyUDnWfl33jTo
ppDmoNlnZv+KTfQlRsocpIugithkaQIDAQABo3sweTAJBgNVHRMEAjAAMCwGCWCG
SAGG+EIBDQQfFh1PcGVuU1NMIEdlbmVyYXRlZCBDZXJ0aWZpY2F0ZTAdBgNVHQ4E
FgQUkDw3dFzNPEe3bsa0gnWe8+E+zoAwHwYDVR0jBBgwFoAUPRGVK91iC8TbLJT5
gcUvIkywQxswDQYJKoZIhvcNAQEFBQADgYEAE643YBPeM5E0o9d7o71WnfI/dD4X
dE9fi9Tw161bsZ2SQkAGTDpnhk/xFTkAGXjFF5CwIyhrJOT3wxyQ9KY0m1kCOkR9
Pryt8UiEC5MqvKAHNQ+mhFfC1ZPoevVoyuqQ4MwoiBCQWE5w6TBNT4J8nQ3gMnbv
wFDY6BXN3exIGTE=
-----END CERTIFICATE-----
