Certificate:
    Data:
        Version: 3 (0x2)
        Serial Number:
            fe:63:ee:53:34:3f:73:b9
        Signature Algorithm: sha1WithRSAEncryption
        Issuer: C=AT, ST=Styria, O=FirmOS FRE TestCA, CN=fre_test_ca@firmos.at/emailAddress=fre_test_ca@firmos.at
        Validity
            Not Before: Dec  5 13:59:49 2011 GMT
            Not After : Dec  2 13:59:49 2021 GMT
        Subject: C=AT, ST=Styria, O=FirmOS FRE TestCA, CN=fre_test_ca@firmos.at/emailAddress=fre_test_ca@firmos.at
        Subject Public Key Info:
            Public Key Algorithm: rsaEncryption
                Public-Key: (1024 bit)
                Modulus:
                    00:b9:ea:9a:c7:fb:74:32:9c:52:f0:91:f7:37:2c:
                    9f:75:3a:e9:e2:f7:f8:0d:22:6f:90:e7:dc:df:7b:
                    00:0d:d7:19:a2:fc:33:7a:48:1c:0d:06:c4:ed:54:
                    bc:12:3c:c1:c9:2e:1f:70:a1:66:58:6a:6b:a6:6b:
                    76:35:67:29:7c:82:ee:42:dd:84:ac:63:2c:f1:0a:
                    21:22:45:fc:41:0b:7c:5f:0a:71:88:69:9f:e7:9e:
                    7a:35:de:f9:be:bc:00:cf:3a:ab:2b:df:6c:e0:e7:
                    a1:6f:6e:39:e0:50:e3:f4:05:62:6c:65:6a:3d:db:
                    4f:a3:1e:54:a1:2e:38:63:dd
                Exponent: 65537 (0x10001)
        X509v3 extensions:
            X509v3 Subject Key Identifier: 
                3D:11:95:2B:DD:62:0B:C4:DB:2C:94:F9:81:C5:2F:22:4C:B0:43:1B
            X509v3 Authority Key Identifier: 
                keyid:3D:11:95:2B:DD:62:0B:C4:DB:2C:94:F9:81:C5:2F:22:4C:B0:43:1B

            X509v3 Basic Constraints: 
                CA:TRUE
    Signature Algorithm: sha1WithRSAEncryption
        38:af:1e:bb:7d:d9:61:eb:7b:b2:48:ae:df:8b:a8:96:e5:b3:
        dd:d3:1d:30:cb:54:f9:a1:67:18:3b:6d:87:28:09:69:25:e4:
        e3:54:5a:63:78:d3:8f:f4:87:2f:86:ba:25:d0:5b:7d:d0:b2:
        f7:03:18:7b:de:c3:f5:45:d3:77:b2:05:b3:20:5f:0a:11:c5:
        d5:59:3a:4a:d9:43:1b:71:58:6c:6f:55:ef:5b:00:f1:c6:ee:
        0d:d4:eb:04:e3:48:0b:38:99:82:1a:5a:84:fe:40:7d:f5:4a:
        eb:c7:9d:63:2a:e8:2a:39:6a:aa:4a:59:9f:1d:c5:e5:aa:3f:
        aa:a8
-----BEGIN CERTIFICATE-----
MIIC0DCCAjmgAwIBAgIJAP5j7lM0P3O5MA0GCSqGSIb3DQEBBQUAMIGAMQswCQYD
VQQGEwJBVDEPMA0GA1UECAwGU3R5cmlhMRowGAYDVQQKDBFGaXJtT1MgRlJFIFRl
c3RDQTEeMBwGA1UEAwwVZnJlX3Rlc3RfY2FAZmlybW9zLmF0MSQwIgYJKoZIhvcN
AQkBFhVmcmVfdGVzdF9jYUBmaXJtb3MuYXQwHhcNMTExMjA1MTM1OTQ5WhcNMjEx
MjAyMTM1OTQ5WjCBgDELMAkGA1UEBhMCQVQxDzANBgNVBAgMBlN0eXJpYTEaMBgG
A1UECgwRRmlybU9TIEZSRSBUZXN0Q0ExHjAcBgNVBAMMFWZyZV90ZXN0X2NhQGZp
cm1vcy5hdDEkMCIGCSqGSIb3DQEJARYVZnJlX3Rlc3RfY2FAZmlybW9zLmF0MIGf
MA0GCSqGSIb3DQEBAQUAA4GNADCBiQKBgQC56prH+3QynFLwkfc3LJ91Ouni9/gN
Im+Q59zfewAN1xmi/DN6SBwNBsTtVLwSPMHJLh9woWZYamuma3Y1Zyl8gu5C3YSs
YyzxCiEiRfxBC3xfCnGIaZ/nnno13vm+vADPOqsr32zg56FvbjngUOP0BWJsZWo9
20+jHlShLjhj3QIDAQABo1AwTjAdBgNVHQ4EFgQUPRGVK91iC8TbLJT5gcUvIkyw
QxswHwYDVR0jBBgwFoAUPRGVK91iC8TbLJT5gcUvIkywQxswDAYDVR0TBAUwAwEB
/zANBgkqhkiG9w0BAQUFAAOBgQA4rx67fdlh63uySK7fi6iW5bPd0x0wy1T5oWcY
O22HKAlpJeTjVFpjeNOP9Icvhrol0Ft90LL3Axh73sP1RdN3sgWzIF8KEcXVWTpK
2UMbcVhsb1XvWwDxxu4N1OsE40gLOJmCGlqE/kB99Urrx51jKugqOWqqSlmfHcXl
qj+qqA==
-----END CERTIFICATE-----
