Certificate:
    Data:
        Version: 3 (0x2)
        Serial Number:
            fe:63:ee:53:34:3f:73:bb
        Signature Algorithm: sha1WithRSAEncryption
        Issuer: C=AT, ST=Styria, O=FirmOS FRE TestCA, CN=fre_test_ca@firmos.at/emailAddress=fre_test_ca@firmos.at
        Validity
            Not Before: Dec  5 14:49:54 2011 GMT
            Not After : Dec  4 14:49:54 2012 GMT
        Subject: C=AT, ST=Styria, O=FirmOS FRE TestCA, CN=freclient1@firmos.at
        Subject Public Key Info:
            Public Key Algorithm: rsaEncryption
                Public-Key: (1024 bit)
                Modulus:
                    00:9f:ef:de:ea:fe:c3:d7:89:72:68:2f:da:73:a5:
                    ab:43:73:e4:2a:0d:57:0a:e5:fd:3b:6a:36:13:54:
                    a8:89:8e:10:07:c9:3d:96:00:bb:c3:c1:92:ab:6c:
                    d5:ac:30:00:fc:5c:22:f1:e6:fb:64:1d:9a:73:09:
                    38:92:43:aa:fe:1c:b2:e6:a5:9d:f4:d4:b1:7d:72:
                    17:ff:6a:b8:aa:f1:84:2a:7d:e0:b3:fd:ee:53:55:
                    41:58:d9:13:5e:69:b2:4e:ee:09:1e:ee:ef:ee:b4:
                    98:73:30:d2:c4:cb:52:ce:eb:72:88:ce:61:b1:a2:
                    ce:d4:e2:34:8b:4c:1b:2e:9f
                Exponent: 65537 (0x10001)
        X509v3 extensions:
            X509v3 Basic Constraints: 
                CA:FALSE
            Netscape Comment: 
                OpenSSL Generated Certificate
            X509v3 Subject Key Identifier: 
                4B:41:AE:B9:B9:48:11:4B:DA:0C:D9:97:F1:4E:E6:33:2B:FF:3D:F5
            X509v3 Authority Key Identifier: 
                keyid:3D:11:95:2B:DD:62:0B:C4:DB:2C:94:F9:81:C5:2F:22:4C:B0:43:1B

    Signature Algorithm: sha1WithRSAEncryption
        70:f4:07:be:93:62:05:56:48:c3:45:29:f9:37:fa:1d:e2:52:
        43:73:4b:74:57:7d:88:27:77:80:5b:91:e8:c0:fc:93:b8:ce:
        45:94:e9:af:74:d6:27:98:82:51:d8:8a:88:d8:9a:89:28:42:
        38:ee:ef:4d:b2:cf:e4:98:8d:dc:1c:f9:cc:15:5d:bb:4c:a5:
        eb:b1:88:c6:70:41:5a:92:50:85:4b:41:30:09:87:5e:3b:dc:
        c3:3d:2c:1c:a3:ef:c8:2b:38:9f:2c:e8:27:5d:69:5e:f9:91:
        e7:b8:48:cc:30:3a:8e:a3:e9:f6:7b:8e:79:6b:9f:50:91:3a:
        f1:90
-----BEGIN CERTIFICATE-----
MIIC0zCCAjygAwIBAgIJAP5j7lM0P3O7MA0GCSqGSIb3DQEBBQUAMIGAMQswCQYD
VQQGEwJBVDEPMA0GA1UECAwGU3R5cmlhMRowGAYDVQQKDBFGaXJtT1MgRlJFIFRl
c3RDQTEeMBwGA1UEAwwVZnJlX3Rlc3RfY2FAZmlybW9zLmF0MSQwIgYJKoZIhvcN
AQkBFhVmcmVfdGVzdF9jYUBmaXJtb3MuYXQwHhcNMTExMjA1MTQ0OTU0WhcNMTIx
MjA0MTQ0OTU0WjBZMQswCQYDVQQGEwJBVDEPMA0GA1UECAwGU3R5cmlhMRowGAYD
VQQKDBFGaXJtT1MgRlJFIFRlc3RDQTEdMBsGA1UEAwwUZnJlY2xpZW50MUBmaXJt
b3MuYXQwgZ8wDQYJKoZIhvcNAQEBBQADgY0AMIGJAoGBAJ/v3ur+w9eJcmgv2nOl
q0Nz5CoNVwrl/TtqNhNUqImOEAfJPZYAu8PBkqts1awwAPxcIvHm+2QdmnMJOJJD
qv4csualnfTUsX1yF/9quKrxhCp94LP97lNVQVjZE15psk7uCR7u7+60mHMw0sTL
Us7rcojOYbGiztTiNItMGy6fAgMBAAGjezB5MAkGA1UdEwQCMAAwLAYJYIZIAYb4
QgENBB8WHU9wZW5TU0wgR2VuZXJhdGVkIENlcnRpZmljYXRlMB0GA1UdDgQWBBRL
Qa65uUgRS9oM2ZfxTuYzK/899TAfBgNVHSMEGDAWgBQ9EZUr3WILxNsslPmBxS8i
TLBDGzANBgkqhkiG9w0BAQUFAAOBgQBw9Ae+k2IFVkjDRSn5N/od4lJDc0t0V32I
J3eAW5HowPyTuM5FlOmvdNYnmIJR2IqI2JqJKEI47u9Nss/kmI3cHPnMFV27TKXr
sYjGcEFaklCFS0EwCYdeO9zDPSwco+/IKzifLOgnXWle+ZHnuEjMMDqOo+n2e455
a59QkTrxkA==
-----END CERTIFICATE-----
